; Function Attrs: mustprogress uwtable
define dso_local void @_ZNK4pbrt18PaddedSobolSampler8ToStringB5cxx11Ev(ptr dead_on_unwind noalias writable sret(%"class.std::__cxx11::basic_string") align 8 %0, ptr noundef nonnull align 4 dereferenceable(28) %1) local_unnamed_addr #0 align 2 personality ptr @__gxx_personality_v0 {
  %3 = getelementptr inbounds nuw i8, ptr %1, i64 12
  %4 = getelementptr inbounds nuw i8, ptr %1, i64 20
  %5 = getelementptr inbounds nuw i8, ptr %1, i64 24
  %6 = getelementptr inbounds nuw i8, ptr %1, i64 4
  %7 = getelementptr inbounds nuw i8, ptr %1, i64 8
  %8 = getelementptr inbounds nuw i8, ptr %0, i64 16
  store ptr %8, ptr %0, align 8, !tbaa !60, !alias.scope !166
  %9 = getelementptr inbounds nuw i8, ptr %0, i64 8
  store i64 0, ptr %9, align 8, !tbaa !64, !alias.scope !166
  store i8 0, ptr %8, align 8, !tbaa !66, !alias.scope !166
  invoke void @_ZN4pbrt6detail21stringPrintfRecursiveIRKNS_6Point2IiEEJRKiS7_S7_S7_RKNS_17RandomizeStrategyEEEEvPNSt7__cxx1112basic_stringIcSt11char_traitsIcESaIcEEEPKcOT_DpOT0_(ptr noundef nonnull align 8 %0, ptr noundef nonnull @.str.12, ptr noundef nonnull align 4 dereferenceable(8) %3, ptr noundef nonnull align 4 dereferenceable(4) %4, ptr noundef nonnull align 4 dereferenceable(4) %5, ptr noundef nonnull align 4 dereferenceable(4) %1, ptr noundef nonnull align 4 dereferenceable(4) %6, ptr noundef nonnull align 4 dereferenceable(4) %7)
          to label %_ZN4pbrt12StringPrintfIJRKNS_6Point2IiEERKiS6_S6_S6_RKNS_17RandomizeStrategyEEEENSt7__cxx1112basic_stringIcSt11char_traitsIcESaIcEEEPKcDpOT_.exit unwind label %10

10:                                               ; preds = %2
  %11 = landingpad { ptr, i32 }
          cleanup
  %12 = load ptr, ptr %0, align 8, !tbaa !78, !alias.scope !166
  %13 = icmp eq ptr %12, %8
  br i1 %13, label %_ZNKSt7__cxx1112basic_stringIcSt11char_traitsIcESaIcEE11_M_is_localEv.exit.thread.i.i.i, label %_ZNKSt7__cxx1112basic_stringIcSt11char_traitsIcESaIcEE11_M_is_localEv.exit.i.i.i

_ZNKSt7__cxx1112basic_stringIcSt11char_traitsIcESaIcEE11_M_is_localEv.exit.thread.i.i.i: ; preds = %10
  %14 = load i64, ptr %9, align 8, !tbaa !64, !alias.scope !166
  %15 = icmp ult i64 %14, 16
  tail call void @llvm.assume(i1 %15)
  br label %_ZNSt7__cxx1112basic_stringIcSt11char_traitsIcESaIcEED2Ev.exit.i

_ZNKSt7__cxx1112basic_stringIcSt11char_traitsIcESaIcEE11_M_is_localEv.exit.i.i.i: ; preds = %10
  %16 = load i64, ptr %8, align 8, !tbaa !66, !alias.scope !166
  %17 = add i64 %16, 1
  tail call void @_ZdlPvm(ptr noundef %12, i64 noundef %17) #28
  br label %_ZNSt7__cxx1112basic_stringIcSt11char_traitsIcESaIcEED2Ev.exit.i

_ZNSt7__cxx1112basic_stringIcSt11char_traitsIcESaIcEED2Ev.exit.i: ; preds = %_ZNKSt7__cxx1112basic_stringIcSt11char_traitsIcESaIcEE11_M_is_localEv.exit.i.i.i, %_ZNKSt7__cxx1112basic_stringIcSt11char_traitsIcESaIcEE11_M_is_localEv.exit.thread.i.i.i
  resume { ptr, i32 } %11

_ZN4pbrt12StringPrintfIJRKNS_6Point2IiEERKiS6_S6_S6_RKNS_17RandomizeStrategyEEEENSt7__cxx1112basic_stringIcSt11char_traitsIcESaIcEEEPKcDpOT_.exit: ; preds = %2
  ret void
}